target datalayout = "e-m:e-p270:32:32-p271:32:32-p272:64:64-i64:64-i128:128-f80:128-n8:16:32:64-S128"
target triple = "x86_64-pc-linux-gnu"

%struct.VHeader_ = type { i32, i32, [0 x i8] }
%struct.Decl_ = type { ptr, ptr, %union.SourceSpan, i64, %union.anon, i32, %union.anon.0, i64, ptr, ptr, ptr, %union.anon.1 }
%union.SourceSpan = type { i64 }
%union.anon = type { ptr }
%union.anon.0 = type { i16 }
%union.anon.1 = type { %struct.FuncDecl }
%struct.FuncDecl = type { i32, [4 x i8], %struct.Signature_, i32, i32, %union.anon.8 }
%struct.Signature_ = type <{ %struct.CalleeAttributes, i16, i8, i32, i32, [4 x i8], ptr }>
%struct.CalleeAttributes = type { i8 }
%union.anon.8 = type { %struct.anon.9 }
%struct.anon.9 = type { i16, %union.anon.10 }
%union.anon.10 = type { ptr }
%struct.anon.2 = type { ptr, ptr, %union.anon.3 }
%union.anon.3 = type { %struct.BitStructDecl }
%struct.BitStructDecl = type { ptr, ptr, i8 }
%struct.StructDecl = type { i32, ptr, i32, i16 }

@.str = private unnamed_addr constant [36 x i8] c"FATAL ERROR %s -> in %s @ in %s:%d \00", align 1
@.str.1 = private unnamed_addr constant [22 x i8] c"Should be unreachable\00", align 1
@__func__.header_ensure_member_types_exist = private unnamed_addr constant [33 x i8] c"header_ensure_member_types_exist\00", align 1
@.str.2 = private unnamed_addr constant [108 x i8] c"generated/home/dtcxzyw/WorkSpace/Projects/compilers/llvm-opt-benchmark/bench/c3c/c3c/src/compiler/headers.c\00", align 1

; Function Attrs: nounwind uwtable
define dso_local void @header_ensure_member_types_exist(ptr noundef %0, ptr noundef %1, ptr noundef %2) #0 {
  %4 = alloca i32, align 4
  %5 = alloca ptr, align 8
  %6 = alloca ptr, align 8
  %7 = alloca ptr, align 8
  %8 = alloca ptr, align 8
  %9 = alloca ptr, align 8
  %10 = alloca ptr, align 8
  %11 = alloca i32, align 4
  %12 = alloca i32, align 4
  %13 = alloca ptr, align 8
  store ptr %0, ptr %7, align 8
  store ptr %1, ptr %8, align 8
  store ptr %2, ptr %9, align 8
  %14 = load ptr, ptr %9, align 8
  store ptr %14, ptr %10, align 8
  %15 = load ptr, ptr %10, align 8
  store ptr %15, ptr %5, align 8
  %16 = load ptr, ptr %5, align 8
  %17 = icmp ne ptr %16, null
  br i1 %17, label %19, label %18

18:                                               ; preds = %3
  store i32 0, ptr %4, align 4
  br label %24

19:                                               ; preds = %3
  %20 = load ptr, ptr %5, align 8
  store ptr %20, ptr %6, align 8
  %21 = load ptr, ptr %6, align 8
  %22 = getelementptr inbounds %struct.VHeader_, ptr %21, i64 -1
  %23 = load i32, ptr %22, align 4
  store i32 %23, ptr %4, align 4
  br label %24

24:                                               ; preds = %19, %18
  %25 = load i32, ptr %4, align 4
  store i32 %25, ptr %11, align 4
  store i32 0, ptr %12, align 4
  br label %26

26:                                               ; preds = %59, %24
  %27 = load i32, ptr %12, align 4
  %28 = load i32, ptr %11, align 4
  %29 = icmp ult i32 %27, %28
  br i1 %29, label %30, label %62

30:                                               ; preds = %26
  %31 = load ptr, ptr %10, align 8
  %32 = load i32, ptr %12, align 4
  %33 = zext i32 %32 to i64
  %34 = getelementptr inbounds ptr, ptr %31, i64 %33
  %35 = load ptr, ptr %34, align 8
  store ptr %35, ptr %13, align 8
  %36 = load ptr, ptr %13, align 8
  %37 = getelementptr inbounds %struct.Decl_, ptr %36, i32 0, i32 3
  %38 = load i64, ptr %37, align 8
  %39 = and i64 %38, 127
  %40 = trunc i64 %39 to i32
  switch i32 %40, label %55 [
    i32 26, label %41
    i32 23, label %47
    i32 25, label %47
  ]

41:                                               ; preds = %30
  %42 = load ptr, ptr %7, align 8
  %43 = load ptr, ptr %8, align 8
  %44 = load ptr, ptr %13, align 8
  %45 = getelementptr inbounds %struct.Decl_, ptr %44, i32 0, i32 10
  %46 = load ptr, ptr %45, align 8
  call void @header_gen_maybe_generate_type(ptr noundef %42, ptr noundef %43, ptr noundef %46)
  br label %58

47:                                               ; preds = %30, %30
  %48 = load ptr, ptr %7, align 8
  %49 = load ptr, ptr %8, align 8
  %50 = load ptr, ptr %13, align 8
  %51 = getelementptr inbounds %struct.Decl_, ptr %50, i32 0, i32 11
  %52 = getelementptr inbounds %struct.anon.2, ptr %51, i32 0, i32 2
  %53 = getelementptr inbounds %struct.StructDecl, ptr %52, i32 0, i32 1
  %54 = load ptr, ptr %53, align 8
  call void @header_ensure_member_types_exist(ptr noundef %48, ptr noundef %49, ptr noundef %54)
  br label %58

55:                                               ; preds = %30
  br label %56

56:                                               ; preds = %55
  call void (ptr, ...) @error_exit(ptr noundef @.str, ptr noundef @.str.1, ptr noundef @__func__.header_ensure_member_types_exist, ptr noundef @.str.2, i32 noundef 347) #4
  unreachable

57:                                               ; No predecessors!
  br label %58

58:                                               ; preds = %57, %47, %41
  br label %59

59:                                               ; preds = %58
  %60 = load i32, ptr %12, align 4
  %61 = add i32 %60, 1
  store i32 %61, ptr %12, align 4
  br label %26, !llvm.loop !7

62:                                               ; preds = %26
  br label %63

63:                                               ; preds = %62
  br label %64

64:                                               ; preds = %63
  ret void
}