; Function Attrs: nounwind uwtable
define dso_local void @header_ensure_member_types_exist(ptr noundef %0, ptr noundef %1, ptr noundef readonly %2) local_unnamed_addr #0 {
  %.not = icmp eq ptr %2, null
  br i1 %.not, label %._crit_edge, label %4

4:                                                ; preds = %3
  %5 = getelementptr inbounds i8, ptr %2, i64 -8
  %6 = load i32, ptr %5, align 4
  %.not20 = icmp eq i32 %6, 0
  br i1 %.not20, label %._crit_edge, label %.lr.ph.preheader

.lr.ph.preheader:                                 ; preds = %4
  %wide.trip.count = zext i32 %6 to i64
  br label %.lr.ph

.lr.ph:                                           ; preds = %.lr.ph.preheader, %20
  %indvars.iv = phi i64 [ 0, %.lr.ph.preheader ], [ %indvars.iv.next, %20 ]
  %7 = getelementptr inbounds nuw ptr, ptr %2, i64 %indvars.iv
  %8 = load ptr, ptr %7, align 8
  %9 = getelementptr inbounds nuw i8, ptr %8, i64 24
  %10 = load i64, ptr %9, align 8
  %11 = trunc i64 %10 to i32
  %12 = and i32 %11, 127
  switch i32 %12, label %19 [
    i32 26, label %13
    i32 23, label %16
    i32 25, label %16
  ]

13:                                               ; preds = %.lr.ph
  %14 = getelementptr inbounds nuw i8, ptr %8, i64 72
  %15 = load ptr, ptr %14, align 8
  tail call fastcc void @header_gen_maybe_generate_type(ptr noundef %0, ptr noundef %1, ptr noundef %15)
  br label %20

16:                                               ; preds = %.lr.ph, %.lr.ph
  %17 = getelementptr inbounds nuw i8, ptr %8, i64 104
  %18 = load ptr, ptr %17, align 8
  tail call void @header_ensure_member_types_exist(ptr noundef %0, ptr noundef %1, ptr noundef %18)
  br label %20

19:                                               ; preds = %.lr.ph
  tail call void (ptr, ...) @error_exit(ptr noundef nonnull @.str, ptr noundef nonnull @.str.1, ptr noundef nonnull @__func__.header_ensure_member_types_exist, ptr noundef nonnull @.str.2, i32 noundef 347) #5
  unreachable

20:                                               ; preds = %13, %16
  %indvars.iv.next = add nuw nsw i64 %indvars.iv, 1
  %exitcond.not = icmp eq i64 %indvars.iv.next, %wide.trip.count
  br i1 %exitcond.not, label %._crit_edge, label %.lr.ph, !llvm.loop !7

._crit_edge:                                      ; preds = %20, %3, %4
  ret void
}